target datalayout = "e-m:e-p270:32:32-p271:32:32-p272:64:64-i64:64-i128:128-f80:128-n8:16:32:64-S128"
target triple = "x86_64-pc-linux-gnu"

%struct._range_string = type { i64, i64, ptr }

@hf_zbee_zdp_index = external global i32, align 4
@hf_zbee_zdp_nwk_addr = external global i32, align 4
@.str.1 = private unnamed_addr constant [19 x i8] c", Nwk Addr: 0x%04x\00", align 1
@hf_zbee_zdp_endpoint = external global i32, align 4
@hf_zbee_zdp_in_count = external global i32, align 4
@hf_zbee_zdp_in_cluster = external global i32, align 4
@.str.4 = private unnamed_addr constant [6 x i8] c" (%s)\00", align 1
@zbee_aps_cid_names = external constant [0 x %struct._range_string], align 8
@.str.5 = private unnamed_addr constant [16 x i8] c"Unknown Cluster\00", align 1
@hf_zbee_zdp_out_count = external global i32, align 4
@hf_zbee_zdp_out_cluster = external global i32, align 4
@.str.13 = private unnamed_addr constant [13 x i8] c", Status: %s\00", align 1

; Function Attrs: nounwind uwtable
define hidden void @dissect_zbee_zdp_rsp_ext_simple_desc(ptr noundef %0, ptr noundef %1, ptr noundef %2) #0 {
  %4 = alloca ptr, align 8
  %5 = alloca ptr, align 8
  %6 = alloca ptr, align 8
  %7 = alloca ptr, align 8
  %8 = alloca i32, align 4
  %9 = alloca i32, align 4
  %10 = alloca i32, align 4
  %11 = alloca i8, align 1
  %12 = alloca i32, align 4
  %13 = alloca i32, align 4
  %14 = alloca i32, align 4
  %15 = alloca i32, align 4
  %16 = alloca i32, align 4
  store ptr %0, ptr %4, align 8
  store ptr %1, ptr %5, align 8
  store ptr %2, ptr %6, align 8
  store i32 0, ptr %8, align 4
  store i32 2, ptr %10, align 4
  %17 = load ptr, ptr %6, align 8
  %18 = load ptr, ptr %4, align 8
  %19 = call zeroext i8 @zdp_parse_status(ptr noundef %17, ptr noundef %18, ptr noundef %8)
  store i8 %19, ptr %11, align 1
  %20 = load i8, ptr %11, align 1
  %21 = zext i8 %20 to i32
  %22 = icmp eq i32 %21, 0
  br i1 %22, label %28, label %23

23:                                               ; preds = %3
  %24 = load ptr, ptr %4, align 8
  %25 = load i32, ptr %8, align 4
  %26 = call i32 @tvb_bytes_exist(ptr noundef %24, i32 noundef %25, i32 noundef 2)
  %27 = icmp ne i32 %26, 0
  br i1 %27, label %28, label %39

28:                                               ; preds = %23, %3
  %29 = load ptr, ptr %6, align 8
  %30 = load i32, ptr @hf_zbee_zdp_nwk_addr, align 4
  %31 = load ptr, ptr %4, align 8
  %32 = load i32, ptr %8, align 4
  %33 = call ptr @proto_tree_add_item_ret_uint(ptr noundef %29, i32 noundef %30, ptr noundef %31, i32 noundef %32, i32 noundef 2, i32 noundef -2147483648, ptr noundef %12)
  %34 = load ptr, ptr %6, align 8
  %35 = load ptr, ptr %5, align 8
  %36 = load i32, ptr %12, align 4
  call void (ptr, ptr, ptr, ...) @zbee_append_info(ptr noundef %34, ptr noundef %35, ptr noundef @.str.1, i32 noundef %36)
  %37 = load i32, ptr %8, align 4
  %38 = add i32 %37, 2
  store i32 %38, ptr %8, align 4
  br label %39

39:                                               ; preds = %28, %23
  %40 = load i8, ptr %11, align 1
  %41 = zext i8 %40 to i32
  %42 = icmp eq i32 %41, 0
  br i1 %42, label %43, label %134

43:                                               ; preds = %39
  %44 = load ptr, ptr %6, align 8
  %45 = load i32, ptr @hf_zbee_zdp_endpoint, align 4
  %46 = load ptr, ptr %4, align 8
  %47 = load i32, ptr %8, align 4
  %48 = call ptr @proto_tree_add_item(ptr noundef %44, i32 noundef %45, ptr noundef %46, i32 noundef %47, i32 noundef 1, i32 noundef -2147483648)
  %49 = load i32, ptr %8, align 4
  %50 = add i32 %49, 1
  store i32 %50, ptr %8, align 4
  %51 = load ptr, ptr %6, align 8
  %52 = load i32, ptr @hf_zbee_zdp_in_count, align 4
  %53 = load ptr, ptr %4, align 8
  %54 = load i32, ptr %8, align 4
  %55 = call ptr @proto_tree_add_item_ret_uint(ptr noundef %51, i32 noundef %52, ptr noundef %53, i32 noundef %54, i32 noundef 1, i32 noundef -2147483648, ptr noundef %14)
  %56 = load i32, ptr %8, align 4
  %57 = add i32 %56, 1
  store i32 %57, ptr %8, align 4
  %58 = load ptr, ptr %6, align 8
  %59 = load i32, ptr @hf_zbee_zdp_out_count, align 4
  %60 = load ptr, ptr %4, align 8
  %61 = load i32, ptr %8, align 4
  %62 = call ptr @proto_tree_add_item_ret_uint(ptr noundef %58, i32 noundef %59, ptr noundef %60, i32 noundef %61, i32 noundef 1, i32 noundef -2147483648, ptr noundef %15)
  %63 = load i32, ptr %8, align 4
  %64 = add i32 %63, 1
  store i32 %64, ptr %8, align 4
  %65 = load ptr, ptr %6, align 8
  %66 = load i32, ptr @hf_zbee_zdp_index, align 4
  %67 = load ptr, ptr %4, align 8
  %68 = load i32, ptr %8, align 4
  %69 = call ptr @proto_tree_add_item_ret_uint(ptr noundef %65, i32 noundef %66, ptr noundef %67, i32 noundef %68, i32 noundef 1, i32 noundef -2147483648, ptr noundef %16)
  %70 = load i32, ptr %8, align 4
  %71 = add i32 %70, 1
  store i32 %71, ptr %8, align 4
  %72 = load i32, ptr %16, align 4
  store i32 %72, ptr %9, align 4
  br label %73

73:                                               ; preds = %98, %43
  %74 = load i32, ptr %9, align 4
  %75 = load i32, ptr %14, align 4
  %76 = icmp ult i32 %74, %75
  br i1 %76, label %77, label %83

77:                                               ; preds = %73
  %78 = load ptr, ptr %4, align 8
  %79 = load i32, ptr %8, align 4
  %80 = load i32, ptr %10, align 4
  %81 = call i32 @tvb_bytes_exist(ptr noundef %78, i32 noundef %79, i32 noundef %80)
  %82 = icmp ne i32 %81, 0
  br label %83

83:                                               ; preds = %77, %73
  %84 = phi i1 [ false, %73 ], [ %82, %77 ]
  br i1 %84, label %85, label %101

85:                                               ; preds = %83
  %86 = load ptr, ptr %6, align 8
  %87 = load i32, ptr @hf_zbee_zdp_in_cluster, align 4
  %88 = load ptr, ptr %4, align 8
  %89 = load i32, ptr %8, align 4
  %90 = load i32, ptr %10, align 4
  %91 = call ptr @proto_tree_add_item_ret_uint(ptr noundef %86, i32 noundef %87, ptr noundef %88, i32 noundef %89, i32 noundef %90, i32 noundef -2147483648, ptr noundef %13)
  store ptr %91, ptr %7, align 8
  %92 = load i32, ptr %10, align 4
  %93 = load i32, ptr %8, align 4
  %94 = add i32 %93, %92
  store i32 %94, ptr %8, align 4
  %95 = load ptr, ptr %7, align 8
  %96 = load i32, ptr %13, align 4
  %97 = call ptr @rval_to_str_const(i32 noundef %96, ptr noundef @zbee_aps_cid_names, ptr noundef @.str.5)
  call void (ptr, ptr, ...) @proto_item_append_text(ptr noundef %95, ptr noundef @.str.4, ptr noundef %97)
  br label %98

98:                                               ; preds = %85
  %99 = load i32, ptr %9, align 4
  %100 = add i32 %99, 1
  store i32 %100, ptr %9, align 4
  br label %73, !llvm.loop !15

101:                                              ; preds = %83
  %102 = load i32, ptr %14, align 4
  %103 = load i32, ptr %9, align 4
  %104 = sub i32 %103, %102
  store i32 %104, ptr %9, align 4
  br label %105

105:                                              ; preds = %130, %101
  %106 = load i32, ptr %9, align 4
  %107 = load i32, ptr %15, align 4
  %108 = icmp ult i32 %106, %107
  br i1 %108, label %109, label %115

109:                                              ; preds = %105
  %110 = load ptr, ptr %4, align 8
  %111 = load i32, ptr %8, align 4
  %112 = load i32, ptr %10, align 4
  %113 = call i32 @tvb_bytes_exist(ptr noundef %110, i32 noundef %111, i32 noundef %112)
  %114 = icmp ne i32 %113, 0
  br label %115

115:                                              ; preds = %109, %105
  %116 = phi i1 [ false, %105 ], [ %114, %109 ]
  br i1 %116, label %117, label %133

117:                                              ; preds = %115
  %118 = load ptr, ptr %6, align 8
  %119 = load i32, ptr @hf_zbee_zdp_out_cluster, align 4
  %120 = load ptr, ptr %4, align 8
  %121 = load i32, ptr %8, align 4
  %122 = load i32, ptr %10, align 4
  %123 = call ptr @proto_tree_add_item_ret_uint(ptr noundef %118, i32 noundef %119, ptr noundef %120, i32 noundef %121, i32 noundef %122, i32 noundef -2147483648, ptr noundef %13)
  store ptr %123, ptr %7, align 8
  %124 = load i32, ptr %10, align 4
  %125 = load i32, ptr %8, align 4
  %126 = add i32 %125, %124
  store i32 %126, ptr %8, align 4
  %127 = load ptr, ptr %7, align 8
  %128 = load i32, ptr %13, align 4
  %129 = call ptr @rval_to_str_const(i32 noundef %128, ptr noundef @zbee_aps_cid_names, ptr noundef @.str.5)
  call void (ptr, ptr, ...) @proto_item_append_text(ptr noundef %127, ptr noundef @.str.4, ptr noundef %129)
  br label %130

130:                                              ; preds = %117
  %131 = load i32, ptr %9, align 4
  %132 = add i32 %131, 1
  store i32 %132, ptr %9, align 4
  br label %105, !llvm.loop !16

133:                                              ; preds = %115
  br label %134

134:                                              ; preds = %133, %39
  %135 = load ptr, ptr %6, align 8
  %136 = load ptr, ptr %5, align 8
  %137 = load i8, ptr %11, align 1
  %138 = call ptr @zdp_status_name(i8 noundef zeroext %137)
  call void (ptr, ptr, ptr, ...) @zbee_append_info(ptr noundef %135, ptr noundef %136, ptr noundef @.str.13, ptr noundef %138)
  %139 = load ptr, ptr %4, align 8
  %140 = load i32, ptr %8, align 4
  %141 = load ptr, ptr %5, align 8
  %142 = load ptr, ptr %6, align 8
  call void @zdp_dump_excess(ptr noundef %139, i32 noundef %140, ptr noundef %141, ptr noundef %142)
  ret void
}