; Function Attrs: nounwind uwtable
define hidden void @dissect_zbee_zdp_rsp_ext_simple_desc(ptr noundef %0, ptr noundef %1, ptr noundef %2) local_unnamed_addr #0 {
  %4 = alloca i32, align 4
  %5 = alloca i32, align 4
  %6 = alloca i32, align 4
  %7 = alloca i32, align 4
  %8 = alloca i32, align 4
  %9 = alloca i32, align 4
  store i32 0, ptr %4, align 4
  %10 = call zeroext i8 @zdp_parse_status(ptr noundef %2, ptr noundef %0, ptr noundef nonnull %4) #2
  %11 = icmp eq i8 %10, 0
  br i1 %11, label %.critedge46, label %12

12:                                               ; preds = %3
  %13 = load i32, ptr %4, align 4
  %14 = call i32 @tvb_bytes_exist(ptr noundef %0, i32 noundef %13, i32 noundef 2) #2
  %.not = icmp eq i32 %14, 0
  br i1 %.not, label %.critedge2, label %15

15:                                               ; preds = %12
  %16 = load i32, ptr @hf_zbee_zdp_nwk_addr, align 4
  %17 = load i32, ptr %4, align 4
  %18 = call ptr @proto_tree_add_item_ret_uint(ptr noundef %2, i32 noundef %16, ptr noundef %0, i32 noundef %17, i32 noundef 2, i32 noundef -2147483648, ptr noundef nonnull %5) #2
  %19 = load i32, ptr %5, align 4
  call void (ptr, ptr, ptr, ...) @zbee_append_info(ptr noundef %2, ptr noundef %1, ptr noundef nonnull @.str.1, i32 noundef %19) #2
  %20 = load i32, ptr %4, align 4
  %21 = add i32 %20, 2
  store i32 %21, ptr %4, align 4
  br label %.critedge2

.critedge46:                                      ; preds = %3
  %22 = load i32, ptr @hf_zbee_zdp_nwk_addr, align 4
  %23 = load i32, ptr %4, align 4
  %24 = call ptr @proto_tree_add_item_ret_uint(ptr noundef %2, i32 noundef %22, ptr noundef %0, i32 noundef %23, i32 noundef 2, i32 noundef -2147483648, ptr noundef nonnull %5) #2
  %25 = load i32, ptr %5, align 4
  call void (ptr, ptr, ptr, ...) @zbee_append_info(ptr noundef %2, ptr noundef %1, ptr noundef nonnull @.str.1, i32 noundef %25) #2
  %26 = load i32, ptr %4, align 4
  %27 = add i32 %26, 2
  store i32 %27, ptr %4, align 4
  %28 = load i32, ptr @hf_zbee_zdp_endpoint, align 4
  %29 = call ptr @proto_tree_add_item(ptr noundef %2, i32 noundef %28, ptr noundef %0, i32 noundef %27, i32 noundef 1, i32 noundef -2147483648) #2
  %30 = load i32, ptr %4, align 4
  %31 = add i32 %30, 1
  store i32 %31, ptr %4, align 4
  %32 = load i32, ptr @hf_zbee_zdp_in_count, align 4
  %33 = call ptr @proto_tree_add_item_ret_uint(ptr noundef %2, i32 noundef %32, ptr noundef %0, i32 noundef %31, i32 noundef 1, i32 noundef -2147483648, ptr noundef nonnull %7) #2
  %34 = load i32, ptr %4, align 4
  %35 = add i32 %34, 1
  store i32 %35, ptr %4, align 4
  %36 = load i32, ptr @hf_zbee_zdp_out_count, align 4
  %37 = call ptr @proto_tree_add_item_ret_uint(ptr noundef %2, i32 noundef %36, ptr noundef %0, i32 noundef %35, i32 noundef 1, i32 noundef -2147483648, ptr noundef nonnull %8) #2
  %38 = load i32, ptr %4, align 4
  %39 = add i32 %38, 1
  store i32 %39, ptr %4, align 4
  %40 = load i32, ptr @hf_zbee_zdp_index, align 4
  %41 = call ptr @proto_tree_add_item_ret_uint(ptr noundef %2, i32 noundef %40, ptr noundef %0, i32 noundef %39, i32 noundef 1, i32 noundef -2147483648, ptr noundef nonnull %9) #2
  %42 = load i32, ptr %4, align 4
  %43 = add i32 %42, 1
  store i32 %43, ptr %4, align 4
  %44 = load i32, ptr %9, align 4
  %45 = load i32, ptr %7, align 4
  %46 = icmp ult i32 %44, %45
  br i1 %46, label %.lr.ph, label %.critedge

.lr.ph:                                           ; preds = %.critedge46, %49
  %.047 = phi i32 [ %57, %49 ], [ %44, %.critedge46 ]
  %47 = load i32, ptr %4, align 4
  %48 = call i32 @tvb_bytes_exist(ptr noundef %0, i32 noundef %47, i32 noundef 2) #2
  %.not43 = icmp eq i32 %48, 0
  br i1 %.not43, label %.lr.ph..critedge.loopexit_crit_edge, label %49

.lr.ph..critedge.loopexit_crit_edge:              ; preds = %.lr.ph
  %.pre.pre = load i32, ptr %7, align 4
  br label %.critedge

49:                                               ; preds = %.lr.ph
  %50 = load i32, ptr @hf_zbee_zdp_in_cluster, align 4
  %51 = load i32, ptr %4, align 4
  %52 = call ptr @proto_tree_add_item_ret_uint(ptr noundef %2, i32 noundef %50, ptr noundef %0, i32 noundef %51, i32 noundef 2, i32 noundef -2147483648, ptr noundef nonnull %6) #2
  %53 = load i32, ptr %4, align 4
  %54 = add i32 %53, 2
  store i32 %54, ptr %4, align 4
  %55 = load i32, ptr %6, align 4
  %56 = call ptr @rval_to_str_const(i32 noundef %55, ptr noundef nonnull @zbee_aps_cid_names, ptr noundef nonnull @.str.5) #2
  call void (ptr, ptr, ...) @proto_item_append_text(ptr noundef %52, ptr noundef nonnull @.str.4, ptr noundef %56) #2
  %57 = add nuw i32 %.047, 1
  %58 = load i32, ptr %7, align 4
  %59 = icmp ult i32 %57, %58
  br i1 %59, label %.lr.ph, label %.critedge, !llvm.loop !15

.critedge:                                        ; preds = %49, %.lr.ph..critedge.loopexit_crit_edge, %.critedge46
  %60 = phi i32 [ %45, %.critedge46 ], [ %.pre.pre, %.lr.ph..critedge.loopexit_crit_edge ], [ %58, %49 ]
  %.0.lcssa = phi i32 [ %44, %.critedge46 ], [ %.047, %.lr.ph..critedge.loopexit_crit_edge ], [ %57, %49 ]
  %61 = sub i32 %.0.lcssa, %60
  %62 = load i32, ptr %8, align 4
  %63 = icmp ult i32 %61, %62
  br i1 %63, label %.lr.ph51, label %.critedge2

.lr.ph51:                                         ; preds = %.critedge, %66
  %.150 = phi i32 [ %74, %66 ], [ %61, %.critedge ]
  %64 = load i32, ptr %4, align 4
  %65 = call i32 @tvb_bytes_exist(ptr noundef %0, i32 noundef %64, i32 noundef 2) #2
  %.not44 = icmp eq i32 %65, 0
  br i1 %.not44, label %.critedge2, label %66

66:                                               ; preds = %.lr.ph51
  %67 = load i32, ptr @hf_zbee_zdp_out_cluster, align 4
  %68 = load i32, ptr %4, align 4
  %69 = call ptr @proto_tree_add_item_ret_uint(ptr noundef %2, i32 noundef %67, ptr noundef %0, i32 noundef %68, i32 noundef 2, i32 noundef -2147483648, ptr noundef nonnull %6) #2
  %70 = load i32, ptr %4, align 4
  %71 = add i32 %70, 2
  store i32 %71, ptr %4, align 4
  %72 = load i32, ptr %6, align 4
  %73 = call ptr @rval_to_str_const(i32 noundef %72, ptr noundef nonnull @zbee_aps_cid_names, ptr noundef nonnull @.str.5) #2
  call void (ptr, ptr, ...) @proto_item_append_text(ptr noundef %69, ptr noundef nonnull @.str.4, ptr noundef %73) #2
  %74 = add nuw i32 %.150, 1
  %75 = load i32, ptr %8, align 4
  %76 = icmp ult i32 %74, %75
  br i1 %76, label %.lr.ph51, label %.critedge2, !llvm.loop !16

.critedge2:                                       ; preds = %66, %.lr.ph51, %.critedge, %15, %12
  %77 = call ptr @zdp_status_name(i8 noundef zeroext %10) #2
  call void (ptr, ptr, ptr, ...) @zbee_append_info(ptr noundef %2, ptr noundef %1, ptr noundef nonnull @.str.13, ptr noundef %77) #2
  %78 = load i32, ptr %4, align 4
  call void @zdp_dump_excess(ptr noundef %0, i32 noundef %78, ptr noundef %1, ptr noundef %2) #2
  ret void
}